target datalayout = "e-m:e-p270:32:32-p271:32:32-p272:64:64-i64:64-i128:128-f80:128-n8:16:32:64-S128"
target triple = "x86_64-pc-linux-gnu"

@.str.4389 = private unnamed_addr constant [12 x i8] c"%u min (%u)\00", align 1
@.str.4390 = private unnamed_addr constant [11 x i8] c"%u hr (%u)\00", align 1
@.str.4391 = private unnamed_addr constant [12 x i8] c"%u sec (%u)\00", align 1
@.str.4392 = private unnamed_addr constant [17 x i8] c"deactivated (%u)\00", align 1

; Function Attrs: null_pointer_is_valid sspstrong uwtable
define internal void @ngap_PeriodicRegistrationUpdateTimer_fmt(ptr noundef %0, i32 noundef %1) #0 {
  %3 = alloca ptr, align 8
  %4 = alloca i32, align 4
  %5 = alloca i32, align 4
  store ptr %0, ptr %3, align 8
  store i32 %1, ptr %4, align 4
  call void @llvm.lifetime.start.p0(i64 4, ptr %5) #11
  %6 = load i32, ptr %4, align 4
  %7 = and i32 %6, 31
  store i32 %7, ptr %5, align 4
  %8 = load i32, ptr %4, align 4
  %9 = lshr i32 %8, 5
  switch i32 %9, label %19 [
    i32 0, label %10
    i32 1, label %18
    i32 2, label %26
    i32 3, label %34
    i32 4, label %42
    i32 5, label %50
    i32 7, label %57
  ]

10:                                               ; preds = %2
  %11 = load ptr, ptr %3, align 8
  %12 = load ptr, ptr %3, align 8
  %13 = call i64 @llvm.objectsize.i64.p0(ptr %12, i1 false, i1 true, i1 true)
  %14 = load i32, ptr %5, align 4
  %15 = mul i32 %14, 10
  %16 = load i32, ptr %4, align 4
  %17 = call i32 (ptr, i64, i32, i64, ptr, ...) @__snprintf_chk(ptr noundef %11, i64 noundef 240, i32 noundef 2, i64 noundef %13, ptr noundef @.str.4389, i32 noundef %15, i32 noundef %16)
  br label %63

18:                                               ; preds = %2
  br label %19

19:                                               ; preds = %2, %18
  %20 = load ptr, ptr %3, align 8
  %21 = load ptr, ptr %3, align 8
  %22 = call i64 @llvm.objectsize.i64.p0(ptr %21, i1 false, i1 true, i1 true)
  %23 = load i32, ptr %5, align 4
  %24 = load i32, ptr %4, align 4
  %25 = call i32 (ptr, i64, i32, i64, ptr, ...) @__snprintf_chk(ptr noundef %20, i64 noundef 240, i32 noundef 2, i64 noundef %22, ptr noundef @.str.4390, i32 noundef %23, i32 noundef %24)
  br label %63

26:                                               ; preds = %2
  %27 = load ptr, ptr %3, align 8
  %28 = load ptr, ptr %3, align 8
  %29 = call i64 @llvm.objectsize.i64.p0(ptr %28, i1 false, i1 true, i1 true)
  %30 = load i32, ptr %5, align 4
  %31 = mul i32 %30, 10
  %32 = load i32, ptr %4, align 4
  %33 = call i32 (ptr, i64, i32, i64, ptr, ...) @__snprintf_chk(ptr noundef %27, i64 noundef 240, i32 noundef 2, i64 noundef %29, ptr noundef @.str.4390, i32 noundef %31, i32 noundef %32)
  br label %63

34:                                               ; preds = %2
  %35 = load ptr, ptr %3, align 8
  %36 = load ptr, ptr %3, align 8
  %37 = call i64 @llvm.objectsize.i64.p0(ptr %36, i1 false, i1 true, i1 true)
  %38 = load i32, ptr %5, align 4
  %39 = mul i32 %38, 2
  %40 = load i32, ptr %4, align 4
  %41 = call i32 (ptr, i64, i32, i64, ptr, ...) @__snprintf_chk(ptr noundef %35, i64 noundef 240, i32 noundef 2, i64 noundef %37, ptr noundef @.str.4391, i32 noundef %39, i32 noundef %40)
  br label %63

42:                                               ; preds = %2
  %43 = load ptr, ptr %3, align 8
  %44 = load ptr, ptr %3, align 8
  %45 = call i64 @llvm.objectsize.i64.p0(ptr %44, i1 false, i1 true, i1 true)
  %46 = load i32, ptr %5, align 4
  %47 = mul i32 %46, 30
  %48 = load i32, ptr %4, align 4
  %49 = call i32 (ptr, i64, i32, i64, ptr, ...) @__snprintf_chk(ptr noundef %43, i64 noundef 240, i32 noundef 2, i64 noundef %45, ptr noundef @.str.4391, i32 noundef %47, i32 noundef %48)
  br label %63

50:                                               ; preds = %2
  %51 = load ptr, ptr %3, align 8
  %52 = load ptr, ptr %3, align 8
  %53 = call i64 @llvm.objectsize.i64.p0(ptr %52, i1 false, i1 true, i1 true)
  %54 = load i32, ptr %5, align 4
  %55 = load i32, ptr %4, align 4
  %56 = call i32 (ptr, i64, i32, i64, ptr, ...) @__snprintf_chk(ptr noundef %51, i64 noundef 240, i32 noundef 2, i64 noundef %53, ptr noundef @.str.4389, i32 noundef %54, i32 noundef %55)
  br label %63

57:                                               ; preds = %2
  %58 = load ptr, ptr %3, align 8
  %59 = load ptr, ptr %3, align 8
  %60 = call i64 @llvm.objectsize.i64.p0(ptr %59, i1 false, i1 true, i1 true)
  %61 = load i32, ptr %4, align 4
  %62 = call i32 (ptr, i64, i32, i64, ptr, ...) @__snprintf_chk(ptr noundef %58, i64 noundef 240, i32 noundef 2, i64 noundef %60, ptr noundef @.str.4392, i32 noundef %61)
  br label %63

63:                                               ; preds = %57, %50, %42, %34, %26, %19, %10
  call void @llvm.lifetime.end.p0(i64 4, ptr %5) #11
  ret void
}