; Function Attrs: nofree null_pointer_is_valid sspstrong uwtable
define internal void @ngap_PeriodicRegistrationUpdateTimer_fmt(ptr noundef %0, i32 noundef %1) #3 {
  %3 = and i32 %1, 31
  %4 = lshr i32 %1, 5
  switch i32 %4, label %8 [
    i32 0, label %5
    i32 7, label %21
    i32 2, label %10
    i32 3, label %13
    i32 4, label %16
    i32 5, label %19
  ]

5:                                                ; preds = %2
  %6 = mul nuw nsw i32 %3, 10
  %7 = tail call i32 (ptr, i64, i32, i64, ptr, ...) @__snprintf_chk(ptr noundef %0, i64 noundef 240, i32 noundef 2, i64 noundef -1, ptr noundef nonnull @.str.4389, i32 noundef %6, i32 noundef %1)
  br label %23

8:                                                ; preds = %2
  %9 = tail call i32 (ptr, i64, i32, i64, ptr, ...) @__snprintf_chk(ptr noundef %0, i64 noundef 240, i32 noundef 2, i64 noundef -1, ptr noundef nonnull @.str.4390, i32 noundef %3, i32 noundef %1)
  br label %23

10:                                               ; preds = %2
  %11 = mul nuw nsw i32 %3, 10
  %12 = tail call i32 (ptr, i64, i32, i64, ptr, ...) @__snprintf_chk(ptr noundef %0, i64 noundef 240, i32 noundef 2, i64 noundef -1, ptr noundef nonnull @.str.4390, i32 noundef %11, i32 noundef %1)
  br label %23

13:                                               ; preds = %2
  %14 = shl nuw nsw i32 %3, 1
  %15 = tail call i32 (ptr, i64, i32, i64, ptr, ...) @__snprintf_chk(ptr noundef %0, i64 noundef 240, i32 noundef 2, i64 noundef -1, ptr noundef nonnull @.str.4391, i32 noundef %14, i32 noundef %1)
  br label %23

16:                                               ; preds = %2
  %17 = mul nuw nsw i32 %3, 30
  %18 = tail call i32 (ptr, i64, i32, i64, ptr, ...) @__snprintf_chk(ptr noundef %0, i64 noundef 240, i32 noundef 2, i64 noundef -1, ptr noundef nonnull @.str.4391, i32 noundef %17, i32 noundef %1)
  br label %23

19:                                               ; preds = %2
  %20 = tail call i32 (ptr, i64, i32, i64, ptr, ...) @__snprintf_chk(ptr noundef %0, i64 noundef 240, i32 noundef 2, i64 noundef -1, ptr noundef nonnull @.str.4389, i32 noundef %3, i32 noundef %1)
  br label %23

21:                                               ; preds = %2
  %22 = tail call i32 (ptr, i64, i32, i64, ptr, ...) @__snprintf_chk(ptr noundef %0, i64 noundef 240, i32 noundef 2, i64 noundef -1, ptr noundef nonnull @.str.4392, i32 noundef %1)
  br label %23

23:                                               ; preds = %21, %19, %16, %13, %10, %8, %5
  ret void
}